; Function Attrs: nounwind uwtable
define i32 @getPack(ptr noundef %0, i32 noundef %1, i32 noundef %2) local_unnamed_addr #0 {
  %4 = alloca i32, align 4
  call void @llvm.lifetime.start.p0(i64 4, ptr nonnull %4) #19
  %5 = tail call ptr @agget(ptr noundef %0, ptr noundef nonnull @.str.14) #19
  %.not = icmp eq ptr %5, null
  br i1 %.not, label %14, label %6

6:                                                ; preds = %3
  %7 = call i32 (ptr, ptr, ...) @__isoc99_sscanf(ptr noundef nonnull %5, ptr noundef nonnull @.str.1, ptr noundef nonnull %4) #19
  %8 = icmp eq i32 %7, 1
  %9 = load i32, ptr %4, align 4
  %10 = icmp sgt i32 %9, -1
  %or.cond = select i1 %8, i1 %10, i1 false
  br i1 %or.cond, label %14, label %11

11:                                               ; preds = %6
  %12 = load i8, ptr %5, align 1, !tbaa !47
  switch i8 %12, label %14 [
    i8 116, label %13
    i8 84, label %13
  ]

13:                                               ; preds = %11, %11
  br label %14

14:                                               ; preds = %11, %6, %13, %3
  %.0 = phi i32 [ %2, %13 ], [ %1, %3 ], [ %9, %6 ], [ %1, %11 ]
  call void @llvm.lifetime.end.p0(i64 4, ptr nonnull %4) #19
  ret i32 %.0
}